; ModuleID = 'source-C-CXX/26/1931.c'
source_filename = "source-C-CXX/26/1931.c"
target datalayout = "e-m:e-p270:32:32-p271:32:32-p272:64:64-i64:64-f80:128-n8:16:32:64-S128"
target triple = "x86_64-pc-linux-gnu"

@.str = private unnamed_addr constant [3 x i8] c"%d\00", align 1
@.str.1 = private unnamed_addr constant [9 x i8] c"%f %f %f\00", align 1
@.str.2 = private unnamed_addr constant [17 x i8] c"x1=%.5f;x2=%.5f\0A\00", align 1
@.str.3 = private unnamed_addr constant [12 x i8] c"x1=x2=%.5f\0A\00", align 1
@.str.4 = private unnamed_addr constant [35 x i8] c"x1=0.00000+%.5fi;x2=0.00000-%.5fi\0A\00", align 1
@.str.5 = private unnamed_addr constant [29 x i8] c"x1=%.5f+%.5fi;x2=%.5f-%.5fi\0A\00", align 1

; Function Attrs: nofree nounwind sspstrong uwtable
define dso_local i32 @main() local_unnamed_addr #0 {
  %1 = alloca i32, align 4
  %2 = bitcast i32* %1 to i8*
  call void @llvm.lifetime.start.p0i8(i64 4, i8* nonnull %2) #5
  %3 = call i32 (i8*, ...) @__isoc99_scanf(i8* getelementptr inbounds ([3 x i8], [3 x i8]* @.str, i64 0, i64 0), i32* nonnull %1)
  %4 = load i32, i32* %1, align 4, !tbaa !5
  %5 = zext i32 %4 to i64
  %6 = call i8* @llvm.stacksave()
  %7 = alloca [3 x float], i64 %5, align 16
  %8 = load i32, i32* %1, align 4, !tbaa !5
  %9 = icmp sgt i32 %8, 0
  br i1 %9, label %12, label %70

10:                                               ; preds = %12
  %11 = icmp sgt i32 %19, 0
  br i1 %11, label %22, label %70

12:                                               ; preds = %0, %12
  %13 = phi i64 [ %18, %12 ], [ 0, %0 ]
  %14 = getelementptr inbounds [3 x float], [3 x float]* %7, i64 %13, i64 0
  %15 = getelementptr inbounds [3 x float], [3 x float]* %7, i64 %13, i64 1
  %16 = getelementptr inbounds [3 x float], [3 x float]* %7, i64 %13, i64 2
  %17 = call i32 (i8*, ...) @__isoc99_scanf(i8* getelementptr inbounds ([9 x i8], [9 x i8]* @.str.1, i64 0, i64 0), float* nonnull %14, float* nonnull %15, float* nonnull %16)
  %18 = add nuw nsw i64 %13, 1
  %19 = load i32, i32* %1, align 4, !tbaa !5
  %20 = sext i32 %19 to i64
  %21 = icmp slt i64 %18, %20
  br i1 %21, label %12, label %10, !llvm.loop !9

22:                                               ; preds = %10, %65
  %23 = phi i64 [ %66, %65 ], [ 0, %10 ]
  %24 = getelementptr inbounds [3 x float], [3 x float]* %7, i64 %23, i64 0
  %25 = load float, float* %24, align 4, !tbaa !11
  %26 = fpext float %25 to double
  %27 = getelementptr inbounds [3 x float], [3 x float]* %7, i64 %23, i64 1
  %28 = bitcast float* %27 to <2 x float>*
  %29 = load <2 x float>, <2 x float>* %28, align 4, !tbaa !11
  %30 = fpext <2 x float> %29 to <2 x double>
  %31 = fmul double %26, 4.000000e+00
  %32 = extractelement <2 x double> %30, i32 0
  %33 = insertelement <2 x double> %30, double %31, i32 1
  %34 = fmul <2 x double> %33, %30
  %35 = extractelement <2 x double> %34, i32 0
  %36 = extractelement <2 x double> %34, i32 1
  %37 = fsub double %35, %36
  %38 = fcmp ogt double %37, 0.000000e+00
  br i1 %38, label %39, label %49

39:                                               ; preds = %22
  %40 = fneg double %32
  %41 = call double @sqrt(double %37) #5
  %42 = fsub double %41, %32
  %43 = fmul double %26, 2.000000e+00
  %44 = fdiv double %42, %43
  %45 = call double @sqrt(double %37) #5
  %46 = fsub double %40, %45
  %47 = fdiv double %46, %43
  %48 = call i32 (i8*, ...) @printf(i8* nonnull dereferenceable(1) getelementptr inbounds ([17 x i8], [17 x i8]* @.str.2, i64 0, i64 0), double %44, double %47)
  br label %65

49:                                               ; preds = %22
  %50 = fcmp oeq double %37, 0.000000e+00
  %51 = fneg double %32
  %52 = fmul double %26, 2.000000e+00
  %53 = fdiv double %51, %52
  br i1 %50, label %54, label %56

54:                                               ; preds = %49
  %55 = call i32 (i8*, ...) @printf(i8* nonnull dereferenceable(1) getelementptr inbounds ([12 x i8], [12 x i8]* @.str.3, i64 0, i64 0), double %53)
  br label %65

56:                                               ; preds = %49
  %57 = fsub double %36, %35
  %58 = call double @sqrt(double %57) #5
  %59 = fdiv double %58, %52
  %60 = fcmp oeq double %53, 0.000000e+00
  br i1 %60, label %61, label %63

61:                                               ; preds = %56
  %62 = call i32 (i8*, ...) @printf(i8* nonnull dereferenceable(1) getelementptr inbounds ([35 x i8], [35 x i8]* @.str.4, i64 0, i64 0), double %59, double %59)
  br label %65

63:                                               ; preds = %56
  %64 = call i32 (i8*, ...) @printf(i8* nonnull dereferenceable(1) getelementptr inbounds ([29 x i8], [29 x i8]* @.str.5, i64 0, i64 0), double %53, double %59, double %53, double %59)
  br label %65

65:                                               ; preds = %39, %61, %63, %54
  %66 = add nuw nsw i64 %23, 1
  %67 = load i32, i32* %1, align 4, !tbaa !5
  %68 = sext i32 %67 to i64
  %69 = icmp slt i64 %66, %68
  br i1 %69, label %22, label %70, !llvm.loop !13

70:                                               ; preds = %65, %0, %10
  call void @llvm.stackrestore(i8* %6)
  call void @llvm.lifetime.end.p0i8(i64 4, i8* nonnull %2) #5
  ret i32 0
}

; Function Attrs: argmemonly mustprogress nofree nosync nounwind willreturn
declare void @llvm.lifetime.start.p0i8(i64 immarg, i8* nocapture) #1

; Function Attrs: nofree nounwind
declare noundef i32 @__isoc99_scanf(i8* nocapture noundef readonly, ...) local_unnamed_addr #2

; Function Attrs: mustprogress nofree nosync nounwind willreturn
declare i8* @llvm.stacksave() #3

; Function Attrs: mustprogress nofree nounwind willreturn
declare double @sqrt(double) local_unnamed_addr #4

; Function Attrs: nofree nounwind
declare noundef i32 @printf(i8* nocapture noundef readonly, ...) local_unnamed_addr #2

; Function Attrs: mustprogress nofree nosync nounwind willreturn
declare void @llvm.stackrestore(i8*) #3

; Function Attrs: argmemonly mustprogress nofree nosync nounwind willreturn
declare void @llvm.lifetime.end.p0i8(i64 immarg, i8* nocapture) #1


!llvm.module.flags = !{!0, !1, !2, !3}
!llvm.ident = !{!4}

!0 = !{i32 1, !"wchar_size", i32 4}
!1 = !{i32 7, !"PIC Level", i32 2}
!2 = !{i32 7, !"PIE Level", i32 2}
!3 = !{i32 7, !"uwtable", i32 1}
!4 = !{!"clang version 13.0.0"}
!5 = !{!6, !6, i64 0}
!6 = !{!"int", !7, i64 0}
!7 = !{!"omnipotent char", !8, i64 0}
!8 = !{!"Simple C/C++ TBAA"}
!9 = distinct !{!9, !10}
!10 = !{!"llvm.loop.mustprogress"}
!11 = !{!12, !12, i64 0}
!12 = !{!"float", !7, i64 0}
!13 = distinct !{!13, !10}
